	.cpu cortex-m0
	.eabi_attribute 20, 1
	.eabi_attribute 21, 1
	.eabi_attribute 23, 3
	.eabi_attribute 24, 1
	.eabi_attribute 25, 1
	.eabi_attribute 26, 1
	.eabi_attribute 30, 4
	.eabi_attribute 34, 0
	.eabi_attribute 18, 4
	.file	"printf.c"
	.text
.Ltext0:
	.section	.text._out_buffer,"ax",%progbits
	.align	1
	.syntax unified
	.code	16
	.thumb_func
	.fpu softvfp
	.type	_out_buffer, %function
_out_buffer:
.LVL0:
.LFB0:
	.file 1 "C:\\Users\\PETN\\Google Drive\\NRF52840DoomKeyboardOnNRF51822\\src\\printf.c"
	.loc 1 137 1 view -0
	@ args = 0, pretend = 0, frame = 0
	@ frame_needed = 0, uses_anonymous_args = 0
	@ link register save eliminated.
	.loc 1 138 3 view .LVU1
	.loc 1 138 6 is_stmt 0 view .LVU2
	cmp	r2, r3
	bcs	.L1
	.loc 1 139 5 is_stmt 1 view .LVU3
	.loc 1 139 26 is_stmt 0 view .LVU4
	strb	r0, [r1, r2]
.L1:
	.loc 1 141 1 view .LVU5
	@ sp needed
	bx	lr
.LFE0:
	.size	_out_buffer, .-_out_buffer
	.section	.text._out_null,"ax",%progbits
	.align	1
	.syntax unified
	.code	16
	.thumb_func
	.fpu softvfp
	.type	_out_null, %function
_out_null:
.LVL1:
.LFB1:
	.loc 1 146 1 is_stmt 1 view -0
	@ args = 0, pretend = 0, frame = 0
	@ frame_needed = 0, uses_anonymous_args = 0
	@ link register save eliminated.
	.loc 1 147 3 view .LVU7
	.loc 1 147 20 view .LVU8
	.loc 1 147 34 view .LVU9
	.loc 1 147 45 view .LVU10
	.loc 1 148 1 is_stmt 0 view .LVU11
	@ sp needed
	bx	lr
.LFE1:
	.size	_out_null, .-_out_null
	.global	__aeabi_uidivmod
	.section	.text._ntoa_long,"ax",%progbits
	.align	1
	.syntax unified
	.code	16
	.thumb_func
	.fpu softvfp
	.type	_ntoa_long, %function
_ntoa_long:
.LVL2:
.LFB9:
	.loc 1 285 1 is_stmt 1 view -0
	@ args = 24, pretend = 0, frame = 48
	@ frame_needed = 0, uses_anonymous_args = 0
	.loc 1 286 3 view .LVU13
	.loc 1 287 3 view .LVU14
	.loc 1 290 3 view .LVU15
	.loc 1 285 1 is_stmt 0 view .LVU16
	push	{r4, r5, r6, r7, lr}
.LCFI0:
	sub	sp, sp, #52
.LCFI1:
	.loc 1 285 1 view .LVU17
	str	r3, [sp, #16]
	add	r3, sp, #72
.LVL3:
	.loc 1 285 1 view .LVU18
	ldmia	r3!, {r4}
.LVL4:
	.loc 1 285 1 view .LVU19
	ldr	r7, [sp, #88]
	ldrb	r3, [r3]
.LVL5:
	.loc 1 285 1 view .LVU20
	ldr	r6, [sp, #92]
	str	r0, [sp, #8]
	str	r1, [sp, #12]
	str	r2, [sp]
	str	r3, [sp, #20]
	.loc 1 290 6 view .LVU21
	cmp	r4, #0
	bne	.L5
	.loc 1 291 5 is_stmt 1 view .LVU22
	.loc 1 291 11 is_stmt 0 view .LVU23
	movs	r3, #16
	bics	r6, r3
.LVL6:
.L5:
	.loc 1 295 3 is_stmt 1 view .LVU24
	.loc 1 295 15 is_stmt 0 view .LVU25
	movs	r3, #128
	movs	r2, r6
.LVL7:
	.loc 1 295 15 view .LVU26
	lsls	r3, r3, #3
	ands	r2, r3
	str	r2, [sp, #24]
	.loc 1 295 6 view .LVU27
	tst	r6, r3
	beq	.L6
	.loc 1 295 34 discriminator 1 view .LVU28
	cmp	r4, #0
	beq	.L7
.L6:
	movs	r3, #97
	lsls	r2, r6, #26
	bpl	.L9
	movs	r3, #65
.L9:
.LBB22:
	.loc 1 298 54 view .LVU29
	movs	r2, #0
	movs	r5, r4
	uxtb	r3, r3
	.loc 1 298 18 view .LVU30
	subs	r3, r3, #10
	.loc 1 298 54 view .LVU31
	str	r2, [sp, #4]
	.loc 1 298 18 view .LVU32
	str	r3, [sp, #28]
.LVL8:
.L12:
	.loc 1 298 18 view .LVU33
.LBE22:
	.loc 1 296 5 is_stmt 1 view .LVU34
.LBB23:
	.loc 1 297 7 view .LVU35
	movs	r0, r5
	ldr	r1, [sp, #80]
	bl	__aeabi_uidivmod
.LVL9:
	.loc 1 298 18 is_stmt 0 view .LVU36
	ldr	r3, [sp, #28]
	.loc 1 297 18 view .LVU37
	uxtb	r2, r1
.LVL10:
	.loc 1 298 7 is_stmt 1 view .LVU38
	.loc 1 298 18 is_stmt 0 view .LVU39
	adds	r3, r2, r3
	uxtb	r3, r3
	cmp	r1, #9
	bhi	.L11
	.loc 1 298 18 discriminator 1 view .LVU40
	movs	r3, r2
	adds	r3, r3, #48
	uxtb	r3, r3
.L11:
	ldr	r2, [sp, #4]
.LVL11:
	.loc 1 298 18 discriminator 8 view .LVU41
	ldr	r1, [sp, #4]
.LVL12:
	.loc 1 298 18 discriminator 8 view .LVU42
	adds	r4, r2, #1
.LVL13:
	.loc 1 298 18 discriminator 8 view .LVU43
	add	r2, sp, #32
	strb	r3, [r1, r2]
	.loc 1 299 7 is_stmt 1 discriminator 8 view .LVU44
.LVL14:
	.loc 1 299 7 is_stmt 0 discriminator 8 view .LVU45
.LBE23:
	.loc 1 300 13 is_stmt 1 discriminator 8 view .LVU46
	.loc 1 300 5 is_stmt 0 discriminator 8 view .LVU47
	ldr	r3, [sp, #80]
	cmp	r5, r3
	bcc	.L7
	.loc 1 300 20 discriminator 1 view .LVU48
	cmp	r4, #16
	bne	.L45
.LVL15:
.L7:
	.loc 1 303 3 is_stmt 1 view .LVU49
.LBB24:
.LBI24:
	.loc 1 230 15 view .LVU50
.LBB25:
	.loc 1 233 3 view .LVU51
	.loc 1 233 15 is_stmt 0 view .LVU52
	movs	r3, #2
	movs	r2, r6
	ands	r2, r3
	str	r2, [sp, #28]
	.loc 1 233 6 view .LVU53
	tst	r6, r3
	bne	.L13
	.loc 1 234 5 is_stmt 1 view .LVU54
	.loc 1 234 25 is_stmt 0 view .LVU55
	subs	r3, r3, #1
	ands	r3, r6
	.loc 1 234 8 view .LVU56
	cmp	r7, #0
	beq	.L14
	.loc 1 234 15 view .LVU57
	cmp	r3, #0
	beq	.L14
	.loc 1 234 42 view .LVU58
	ldr	r2, [sp, #20]
	cmp	r2, #0
	bne	.L15
	.loc 1 234 65 view .LVU59
	adds	r2, r2, #12
	.loc 1 234 55 view .LVU60
	tst	r6, r2
	beq	.L14
.L15:
	.loc 1 235 7 is_stmt 1 view .LVU61
	.loc 1 235 12 is_stmt 0 view .LVU62
	subs	r7, r7, #1
.LVL16:
.L14:
	.loc 1 238 18 view .LVU63
	movs	r2, #48
	b	.L16
.LVL17:
.L45:
	.loc 1 238 18 view .LVU64
.LBE25:
.LBE24:
.LBB34:
	.loc 1 299 13 view .LVU65
	movs	r5, r0
.LBE34:
	str	r4, [sp, #4]
	b	.L12
.LVL18:
.L17:
.LBB35:
.LBB32:
	.loc 1 237 25 view .LVU66
	cmp	r4, #16
	beq	.L20
	.loc 1 238 7 is_stmt 1 view .LVU67
.LVL19:
	.loc 1 238 18 is_stmt 0 view .LVU68
	add	r1, sp, #32
.LVL20:
	.loc 1 238 18 view .LVU69
	strb	r2, [r4, r1]
	adds	r4, r4, #1
.LVL21:
.L16:
	.loc 1 237 11 is_stmt 1 view .LVU70
	ldr	r1, [sp, #84]
	cmp	r1, r4
	bhi	.L17
.L20:
	.loc 1 241 18 is_stmt 0 view .LVU71
	movs	r2, #48
.L18:
	.loc 1 240 11 is_stmt 1 view .LVU72
	cmp	r3, #0
	beq	.L13
	.loc 1 240 36 is_stmt 0 view .LVU73
	cmp	r7, r4
	bls	.L13
	.loc 1 240 53 view .LVU74
	cmp	r4, #15
	bls	.L21
.L13:
	.loc 1 246 3 is_stmt 1 view .LVU75
	.loc 1 246 6 is_stmt 0 view .LVU76
	lsls	r3, r6, #27
	bpl	.L22
	.loc 1 247 5 is_stmt 1 view .LVU77
	.loc 1 247 8 is_stmt 0 view .LVU78
	ldr	r3, [sp, #24]
	cmp	r3, #0
	bne	.L23
	.loc 1 247 36 view .LVU79
	cmp	r4, #0
	beq	.L23
	.loc 1 247 43 view .LVU80
	ldr	r3, [sp, #84]
	cmp	r3, r4
	beq	.L24
	.loc 1 247 61 view .LVU81
	cmp	r4, r7
	bne	.L23
.L24:
	.loc 1 248 7 is_stmt 1 view .LVU82
	.loc 1 248 10 is_stmt 0 view .LVU83
	subs	r3, r4, #1
.LVL22:
	.loc 1 249 7 is_stmt 1 view .LVU84
	.loc 1 249 10 is_stmt 0 view .LVU85
	cmp	r4, #1
	beq	.L46
	.loc 1 249 15 view .LVU86
	ldr	r2, [sp, #80]
	.loc 1 250 12 view .LVU87
	subs	r4, r4, #2
	.loc 1 249 15 view .LVU88
	cmp	r2, #16
	beq	.L26
	movs	r4, r3
.LVL23:
.L25:
	.loc 1 256 10 is_stmt 1 view .LVU89
	.loc 1 259 10 view .LVU90
	.loc 1 259 13 is_stmt 0 view .LVU91
	ldr	r3, [sp, #80]
	cmp	r3, #2
	bne	.L29
	.loc 1 259 27 view .LVU92
	cmp	r4, #15
	bhi	.L31
	.loc 1 260 7 is_stmt 1 view .LVU93
.LVL24:
	.loc 1 260 18 is_stmt 0 view .LVU94
	movs	r3, #98
	b	.L80
.LVL25:
.L21:
	.loc 1 241 7 is_stmt 1 view .LVU95
	.loc 1 241 18 is_stmt 0 view .LVU96
	add	r1, sp, #32
.LVL26:
	.loc 1 241 18 view .LVU97
	strb	r2, [r4, r1]
	adds	r4, r4, #1
.LVL27:
	.loc 1 241 18 view .LVU98
	b	.L18
.LVL28:
.L46:
	.loc 1 241 18 view .LVU99
	movs	r4, r3
.LVL29:
.L23:
	.loc 1 253 5 is_stmt 1 view .LVU100
	.loc 1 253 8 is_stmt 0 view .LVU101
	ldr	r3, [sp, #80]
	cmp	r3, #16
	bne	.L25
.LVL30:
.L26:
	.loc 1 253 23 view .LVU102
	lsls	r3, r6, #26
	bmi	.L27
.LVL31:
	.loc 1 254 18 view .LVU103
	movs	r3, #120
	.loc 1 253 53 view .LVU104
	cmp	r4, #15
	bls	.L80
.LVL32:
.L31:
	.loc 1 279 3 is_stmt 1 view .LVU105
.LBB26:
.LBI26:
	.loc 1 202 15 view .LVU106
.LBB27:
	.loc 1 204 3 view .LVU107
	.loc 1 207 3 view .LVU108
	.loc 1 207 6 is_stmt 0 view .LVU109
	lsls	r3, r6, #30
	beq	.L48
.LBB28:
	ldr	r3, [sp]
.LVL33:
.L82:
	.loc 1 207 6 view .LVU110
	movs	r5, r4
	str	r3, [sp, #4]
.LVL34:
.L40:
	.loc 1 207 6 view .LVU111
	ldr	r3, [sp, #4]
	adds	r0, r4, r3
	subs	r2, r0, r5
.LVL35:
	.loc 1 207 6 view .LVU112
.LBE28:
	.loc 1 214 9 is_stmt 1 view .LVU113
	cmp	r5, #0
	bne	.L41
	.loc 1 219 3 view .LVU114
	.loc 1 219 6 is_stmt 0 view .LVU115
	ldr	r3, [sp, #28]
	cmp	r3, #0
	beq	.L4
	ldr	r3, [sp]
	subs	r4, r0, r3
.LVL36:
.L43:
	.loc 1 219 6 view .LVU116
	ldr	r3, [sp]
	adds	r0, r3, r4
.LVL37:
	.loc 1 220 11 is_stmt 1 view .LVU117
	cmp	r4, r7
	bcc	.L44
.LVL38:
.L4:
	.loc 1 220 11 is_stmt 0 view .LVU118
.LBE27:
.LBE26:
.LBE32:
.LBE35:
	.loc 1 304 1 view .LVU119
	add	sp, sp, #52
.LVL39:
	.loc 1 304 1 view .LVU120
	@ sp needed
.LVL40:
	.loc 1 304 1 view .LVU121
	pop	{r4, r5, r6, r7, pc}
.LVL41:
.L27:
.LBB36:
.LBB33:
	.loc 1 256 10 is_stmt 1 view .LVU122
	.loc 1 257 18 is_stmt 0 view .LVU123
	movs	r3, #88
	.loc 1 256 57 view .LVU124
	cmp	r4, #15
	bhi	.L31
.LVL42:
.L80:
	.loc 1 260 18 view .LVU125
	add	r2, sp, #32
.LVL43:
	.loc 1 260 18 view .LVU126
	strb	r3, [r2, r4]
.LVL44:
	.loc 1 260 14 view .LVU127
	adds	r4, r4, #1
.LVL45:
.L29:
	.loc 1 262 5 is_stmt 1 view .LVU128
	.loc 1 262 8 is_stmt 0 view .LVU129
	cmp	r4, #15
	bhi	.L31
	.loc 1 263 7 is_stmt 1 view .LVU130
.LVL46:
	.loc 1 263 18 is_stmt 0 view .LVU131
	movs	r3, #48
	add	r2, sp, #32
.LVL47:
	.loc 1 263 18 view .LVU132
	strb	r3, [r2, r4]
	.loc 1 263 14 view .LVU133
	adds	r4, r4, #1
.LVL48:
.L22:
	.loc 1 267 3 is_stmt 1 view .LVU134
	.loc 1 267 6 is_stmt 0 view .LVU135
	cmp	r4, #15
	bhi	.L31
	.loc 1 268 5 is_stmt 1 view .LVU136
	.loc 1 268 8 is_stmt 0 view .LVU137
	ldr	r3, [sp, #20]
	cmp	r3, #0
	beq	.L33
	.loc 1 269 7 is_stmt 1 view .LVU138
.LVL49:
	.loc 1 269 18 is_stmt 0 view .LVU139
	movs	r3, #45
.LVL50:
.L81:
	.loc 1 275 18 view .LVU140
	add	r2, sp, #32
.LVL51:
	.loc 1 275 18 view .LVU141
	strb	r3, [r2, r4]
	.loc 1 275 14 view .LVU142
	adds	r4, r4, #1
	b	.L31
.LVL52:
.L33:
	.loc 1 271 10 is_stmt 1 view .LVU143
	.loc 1 271 13 is_stmt 0 view .LVU144
	lsls	r3, r6, #29
	bpl	.L34
	.loc 1 272 7 is_stmt 1 view .LVU145
.LVL53:
	.loc 1 272 18 is_stmt 0 view .LVU146
	movs	r3, #43
	b	.L81
.LVL54:
.L34:
	.loc 1 274 10 is_stmt 1 view .LVU147
	.loc 1 274 13 is_stmt 0 view .LVU148
	lsls	r3, r6, #28
	bpl	.L31
	.loc 1 275 7 is_stmt 1 view .LVU149
.LVL55:
	.loc 1 275 18 is_stmt 0 view .LVU150
	movs	r3, #32
	b	.L81
.LVL56:
.L37:
.LBB31:
.LBB30:
.LBB29:
	.loc 1 209 7 is_stmt 1 view .LVU151
	.loc 1 209 7 is_stmt 0 view .LVU152
	movs	r0, #32
	ldr	r3, [sp, #16]
	ldr	r1, [sp, #12]
	ldr	r6, [sp, #8]
	blx	r6
.LVL57:
	.loc 1 208 37 is_stmt 1 view .LVU153
	.loc 1 208 38 is_stmt 0 view .LVU154
	adds	r5, r5, #1
.LVL58:
.L35:
	.loc 1 208 38 view .LVU155
	ldr	r3, [sp]
	subs	r2, r3, r4
	adds	r2, r2, r5
.LVL59:
	.loc 1 208 26 is_stmt 1 view .LVU156
	.loc 1 208 5 is_stmt 0 view .LVU157
	cmp	r7, r5
	bhi	.L37
	movs	r6, #0
	cmp	r7, r4
	bcc	.L39
	subs	r6, r7, r4
.L39:
	.loc 1 208 5 view .LVU158
	ldr	r3, [sp]
	adds	r3, r6, r3
	b	.L82
.LVL60:
.L48:
	.loc 1 208 17 view .LVU159
	movs	r5, r4
	b	.L35
.LVL61:
.L41:
	.loc 1 208 17 view .LVU160
.LBE29:
	.loc 1 215 5 is_stmt 1 view .LVU161
	add	r3, sp, #32
.LVL62:
	.loc 1 215 5 is_stmt 0 view .LVU162
	subs	r5, r5, #1
.LVL63:
	.loc 1 215 5 view .LVU163
	ldrb	r0, [r5, r3]
	ldr	r1, [sp, #12]
	ldr	r3, [sp, #16]
.LVL64:
	.loc 1 215 5 view .LVU164
	ldr	r6, [sp, #8]
	blx	r6
.LVL65:
	b	.L40
.LVL66:
.L44:
	.loc 1 221 7 is_stmt 1 view .LVU165
	.loc 1 221 7 is_stmt 0 view .LVU166
	movs	r2, r0
	ldr	r3, [sp, #16]
	movs	r0, #32
	ldr	r1, [sp, #12]
	ldr	r5, [sp, #8]
	blx	r5
.LVL67:
	adds	r4, r4, #1
.LVL68:
	.loc 1 221 7 view .LVU167
	b	.L43
.LBE30:
.LBE31:
.LBE33:
.LBE36:
.LFE9:
	.size	_ntoa_long, .-_ntoa_long
	.section	.text._out_char,"ax",%progbits
	.align	1
	.syntax unified
	.code	16
	.thumb_func
	.fpu softvfp
	.type	_out_char, %function
_out_char:
.LVL69:
.LFB2:
	.loc 1 153 1 is_stmt 1 view -0
	@ args = 0, pretend = 0, frame = 0
	@ frame_needed = 0, uses_anonymous_args = 0
	.loc 1 154 3 view .LVU169
	.loc 1 154 17 view .LVU170
	.loc 1 154 28 view .LVU171
	.loc 1 155 3 view .LVU172
	.loc 1 153 1 is_stmt 0 view .LVU173
	push	{r4, lr}
.LCFI2:
	.loc 1 155 6 view .LVU174
	cmp	r0, #0
	beq	.L83
	.loc 1 156 5 is_stmt 1 view .LVU175
	bl	_putchar
.LVL70:
.L83:
	.loc 1 158 1 is_stmt 0 view .LVU176
	@ sp needed
	pop	{r4, pc}
.LFE2:
	.size	_out_char, .-_out_char
	.section	.text._out_fct,"ax",%progbits
	.align	1
	.syntax unified
	.code	16
	.thumb_func
	.fpu softvfp
	.type	_out_fct, %function
_out_fct:
.LVL71:
.LFB3:
	.loc 1 163 1 is_stmt 1 view -0
	@ args = 0, pretend = 0, frame = 0
	@ frame_needed = 0, uses_anonymous_args = 0
	.loc 1 164 3 view .LVU178
	.loc 1 164 14 view .LVU179
	.loc 1 165 3 view .LVU180
	.loc 1 163 1 is_stmt 0 view .LVU181
	push	{r4, lr}
.LCFI3:
	.loc 1 165 6 view .LVU182
	cmp	r0, #0
	beq	.L88
.LVL72:
.LBB39:
.LBI39:
	.loc 1 162 20 is_stmt 1 view .LVU183
.LBB40:
	.loc 1 167 5 view .LVU184
	.loc 1 167 6 is_stmt 0 view .LVU185
	ldr	r3, [r1]
.LVL73:
	.loc 1 167 6 view .LVU186
	ldr	r1, [r1, #4]
.LVL74:
	.loc 1 167 6 view .LVU187
	blx	r3
.LVL75:
.L88:
	.loc 1 167 6 view .LVU188
.LBE40:
.LBE39:
	.loc 1 169 1 view .LVU189
	@ sp needed
	pop	{r4, pc}
.LFE3:
	.size	_out_fct, .-_out_fct
	.section	.text._vsnprintf,"ax",%progbits
	.align	1
	.syntax unified
	.code	16
	.thumb_func
	.fpu softvfp
	.type	_vsnprintf, %function
_vsnprintf:
.LVL76:
.LFB10:
	.loc 1 581 1 is_stmt 1 view -0
	@ args = 4, pretend = 0, frame = 40
	@ frame_needed = 0, uses_anonymous_args = 0
	.loc 1 581 1 is_stmt 0 view .LVU191
	push	{r4, r5, r6, r7, lr}
.LCFI4:
	sub	sp, sp, #68
.LCFI5:
	ldr	r4, [sp, #88]
	.loc 1 581 1 view .LVU192
	str	r0, [sp, #32]
	str	r1, [sp, #36]
	str	r2, [sp, #28]
.LVL77:
	.loc 1 582 3 is_stmt 1 view .LVU193
	.loc 1 583 3 view .LVU194
	.loc 1 585 3 view .LVU195
	.loc 1 581 1 is_stmt 0 view .LVU196
	str	r3, [sp, #40]
	.loc 1 585 6 view .LVU197
	cmp	r1, #0
	bne	.L94
	.loc 1 587 9 view .LVU198
	ldr	r3, .L236
.LVL78:
	.loc 1 587 9 view .LVU199
	str	r3, [sp, #32]
.L94:
.LVL79:
	.loc 1 849 7 view .LVU200
	movs	r6, #0
	b	.L179
.LVL80:
.L180:
	.loc 1 593 5 is_stmt 1 view .LVU201
	.loc 1 596 13 is_stmt 0 view .LVU202
	ldr	r3, [sp, #40]
	adds	r3, r3, #1
.LVL81:
	.loc 1 596 13 view .LVU203
	str	r3, [sp, #40]
	.loc 1 593 8 view .LVU204
	cmp	r0, #37
	beq	.L183
	.loc 1 595 7 is_stmt 1 view .LVU205
	movs	r2, r6
	adds	r5, r6, #1
.LVL82:
	.loc 1 595 7 is_stmt 0 view .LVU206
	ldr	r3, [sp, #28]
.LVL83:
	.loc 1 595 7 view .LVU207
	ldr	r1, [sp, #36]
	ldr	r6, [sp, #32]
	blx	r6
.LVL84:
	.loc 1 596 7 is_stmt 1 view .LVU208
	.loc 1 597 7 view .LVU209
.L233:
.LBB63:
	.loc 1 796 9 is_stmt 0 view .LVU210
	movs	r6, r5
	b	.L179
.LVL85:
.L183:
	.loc 1 796 9 view .LVU211
.LBE63:
	.loc 1 605 11 view .LVU212
	movs	r3, #0
.LVL86:
	.loc 1 608 25 view .LVU213
	movs	r0, #1
	.loc 1 611 25 view .LVU214
	movs	r5, #8
	b	.L95
.LVL87:
.L98:
	.loc 1 607 7 view .LVU215
	cmp	r2, #45
	beq	.L102
	cmp	r2, #48
	bne	.L101
	.loc 1 608 19 is_stmt 1 view .LVU216
	.loc 1 608 25 is_stmt 0 view .LVU217
	orrs	r3, r0
.LVL88:
	.loc 1 608 43 is_stmt 1 view .LVU218
	.loc 1 608 53 view .LVU219
	.loc 1 608 61 view .LVU220
	.loc 1 615 13 view .LVU221
.L106:
.LBB64:
	.loc 1 631 13 is_stmt 0 view .LVU222
	str	r1, [sp, #40]
.LVL89:
.L95:
	.loc 1 631 13 view .LVU223
.LBE64:
	.loc 1 606 5 is_stmt 1 view .LVU224
	.loc 1 607 7 view .LVU225
	.loc 1 607 15 is_stmt 0 view .LVU226
	ldr	r2, [sp, #40]
.LBB65:
	.loc 1 631 13 view .LVU227
	ldr	r1, [sp, #40]
.LBE65:
	.loc 1 607 15 view .LVU228
	ldrb	r2, [r2]
.LBB66:
	.loc 1 631 13 view .LVU229
	adds	r1, r1, #1
.LBE66:
	.loc 1 607 7 view .LVU230
	cmp	r2, #43
	beq	.L97
	bhi	.L98
	cmp	r2, #32
	beq	.L99
	cmp	r2, #35
	beq	.L100
.L101:
.LVL90:
	.loc 1 615 13 is_stmt 1 view .LVU231
	.loc 1 618 5 view .LVU232
	.loc 1 619 5 view .LVU233
.LBB67:
.LBI67:
	.loc 1 184 20 view .LVU234
.LBB68:
	.loc 1 186 3 view .LVU235
	.loc 1 186 3 is_stmt 0 view .LVU236
.LBE68:
.LBE67:
	.loc 1 619 8 view .LVU237
	movs	r0, r2
	subs	r0, r0, #48
	cmp	r0, #9
	bhi	.L226
.LBB69:
.LBB70:
	.loc 1 193 16 view .LVU238
	movs	r7, #0
	.loc 1 195 11 view .LVU239
	movs	r5, #10
	b	.L104
.LVL91:
.L102:
	.loc 1 195 11 view .LVU240
.LBE70:
.LBE69:
	.loc 1 609 19 is_stmt 1 view .LVU241
	.loc 1 609 25 is_stmt 0 view .LVU242
	movs	r2, #2
.L229:
	.loc 1 610 25 view .LVU243
	orrs	r3, r2
.LVL92:
	.loc 1 610 43 is_stmt 1 view .LVU244
	.loc 1 610 53 view .LVU245
	.loc 1 610 61 view .LVU246
	.loc 1 615 13 view .LVU247
	b	.L106
.LVL93:
.L97:
	.loc 1 610 19 view .LVU248
	.loc 1 610 25 is_stmt 0 view .LVU249
	movs	r2, #4
	b	.L229
.L99:
	.loc 1 611 19 is_stmt 1 view .LVU250
	.loc 1 611 25 is_stmt 0 view .LVU251
	orrs	r3, r5
.LVL94:
	.loc 1 611 43 is_stmt 1 view .LVU252
	.loc 1 611 53 view .LVU253
	.loc 1 611 61 view .LVU254
	.loc 1 615 13 view .LVU255
	b	.L106
.LVL95:
.L100:
	.loc 1 612 19 view .LVU256
	.loc 1 612 25 is_stmt 0 view .LVU257
	movs	r2, #16
	b	.L229
.LVL96:
.L107:
.LBB74:
.LBB73:
	.loc 1 195 5 is_stmt 1 view .LVU258
	.loc 1 195 11 is_stmt 0 view .LVU259
	muls	r7, r5
.LVL97:
	.loc 1 195 11 view .LVU260
	subs	r7, r7, #48
	.loc 1 195 7 view .LVU261
	adds	r7, r1, r7
.LVL98:
	.loc 1 195 42 view .LVU262
	str	r0, [sp, #40]
.LVL99:
.L104:
	.loc 1 194 9 is_stmt 1 view .LVU263
	.loc 1 194 10 is_stmt 0 view .LVU264
	ldr	r2, [sp, #40]
	ldrb	r1, [r2]
.LVL100:
.LBB71:
.LBI71:
	.loc 1 184 20 is_stmt 1 view .LVU265
.LBB72:
	.loc 1 186 3 view .LVU266
	.loc 1 186 3 is_stmt 0 view .LVU267
.LBE72:
.LBE71:
	.loc 1 195 42 view .LVU268
	adds	r0, r2, #1
	.loc 1 194 9 view .LVU269
	movs	r2, r1
	subs	r2, r2, #48
	cmp	r2, #9
	bls	.L107
.LVL101:
.L108:
	.loc 1 194 9 view .LVU270
.LBE73:
.LBE74:
	.loc 1 635 5 is_stmt 1 view .LVU271
	.loc 1 636 5 view .LVU272
	.loc 1 635 15 is_stmt 0 view .LVU273
	movs	r0, #0
	.loc 1 636 8 view .LVU274
	ldr	r2, [sp, #40]
	.loc 1 635 15 view .LVU275
	str	r0, [sp, #24]
	.loc 1 636 8 view .LVU276
	ldrb	r1, [r2]
	cmp	r1, #46
	bne	.L111
	.loc 1 637 13 view .LVU277
	movs	r1, #128
	lsls	r1, r1, #3
	orrs	r3, r1
.LVL102:
	.loc 1 639 11 view .LVU278
	ldr	r1, [sp, #40]
	.loc 1 638 13 view .LVU279
	adds	r2, r2, #1
	.loc 1 637 7 is_stmt 1 view .LVU280
.LVL103:
	.loc 1 638 7 view .LVU281
	.loc 1 639 7 view .LVU282
	.loc 1 639 11 is_stmt 0 view .LVU283
	ldrb	r1, [r1, #1]
.LVL104:
.LBB75:
.LBI75:
	.loc 1 184 20 is_stmt 1 view .LVU284
.LBB76:
	.loc 1 186 3 view .LVU285
	.loc 1 186 3 is_stmt 0 view .LVU286
.LBE76:
.LBE75:
	.loc 1 639 10 view .LVU287
	movs	r0, r1
	subs	r0, r0, #48
	cmp	r0, #9
	bhi	.L227
.LBB77:
.LBB78:
	.loc 1 195 11 view .LVU288
	movs	r1, #10
	mov	ip, r1
	b	.L112
.LVL105:
.L226:
	.loc 1 195 11 view .LVU289
.LBE78:
.LBE77:
	.loc 1 622 10 is_stmt 1 view .LVU290
	.loc 1 618 11 is_stmt 0 view .LVU291
	movs	r7, #0
	.loc 1 622 13 view .LVU292
	cmp	r2, #42
	bne	.L108
.LBB82:
	.loc 1 623 7 is_stmt 1 view .LVU293
.LVL106:
	.loc 1 623 17 is_stmt 0 view .LVU294
	ldmia	r4!, {r7}
.LVL107:
	.loc 1 624 7 is_stmt 1 view .LVU295
	.loc 1 624 10 is_stmt 0 view .LVU296
	cmp	r7, #0
	bge	.L110
	.loc 1 625 9 is_stmt 1 view .LVU297
	.loc 1 625 15 is_stmt 0 view .LVU298
	subs	r2, r2, #40
	orrs	r3, r2
.LVL108:
	.loc 1 626 9 is_stmt 1 view .LVU299
	.loc 1 626 31 is_stmt 0 view .LVU300
	rsbs	r7, r7, #0
.LVL109:
.L110:
	.loc 1 631 7 is_stmt 1 view .LVU301
	.loc 1 623 17 is_stmt 0 view .LVU302
	str	r1, [sp, #40]
	b	.L108
.LVL110:
.L114:
	.loc 1 623 17 view .LVU303
.LBE82:
.LBB83:
.LBB81:
	.loc 1 195 5 is_stmt 1 view .LVU304
	.loc 1 195 11 is_stmt 0 view .LVU305
	mov	r0, ip
	ldr	r2, [sp, #24]
.LVL111:
	.loc 1 195 11 view .LVU306
	muls	r2, r0
	subs	r2, r2, #48
	.loc 1 195 7 view .LVU307
	adds	r2, r1, r2
	str	r2, [sp, #24]
.LVL112:
	.loc 1 195 42 view .LVU308
	movs	r2, r5
.LVL113:
.L112:
	.loc 1 194 9 is_stmt 1 view .LVU309
	.loc 1 194 10 is_stmt 0 view .LVU310
	ldrb	r1, [r2]
.LVL114:
.LBB79:
.LBI79:
	.loc 1 184 20 is_stmt 1 view .LVU311
.LBB80:
	.loc 1 186 3 view .LVU312
	.loc 1 186 3 is_stmt 0 view .LVU313
.LBE80:
.LBE79:
	.loc 1 195 42 view .LVU314
	adds	r5, r2, #1
	.loc 1 194 9 view .LVU315
	movs	r0, r1
	subs	r0, r0, #48
	cmp	r0, #9
	bls	.L114
.LVL115:
.L111:
	.loc 1 194 9 view .LVU316
.LBE81:
.LBE83:
	.loc 1 650 5 is_stmt 1 view .LVU317
	.loc 1 650 13 is_stmt 0 view .LVU318
	ldrb	r0, [r2]
	.loc 1 653 13 view .LVU319
	adds	r1, r2, #1
	.loc 1 650 5 view .LVU320
	cmp	r0, #108
	beq	.L116
	.loc 1 650 5 view .LVU321
	bhi	.L117
	cmp	r0, #104
	beq	.L118
	cmp	r0, #106
	beq	.L119
.L232:
	movs	r1, r2
.L120:
.LVL116:
	.loc 1 686 5 is_stmt 1 view .LVU322
	.loc 1 686 13 is_stmt 0 view .LVU323
	ldrb	r5, [r1]
.LBB84:
	.loc 1 757 15 view .LVU324
	adds	r2, r1, #1
	str	r2, [sp, #40]
.LBE84:
	.loc 1 686 5 view .LVU325
	cmp	r5, #120
	bls	.LCB1317
	b	.L124	@long jump
.LCB1317:
	.loc 1 686 5 view .LVU326
	cmp	r5, #97
	bhi	.L125
	cmp	r5, #37
	bne	.LCB1325
	b	.L124	@long jump
.LCB1325:
	cmp	r5, #88
	beq	.LCB1327
	b	.L124	@long jump
.LCB1327:
.LVL117:
.LBB91:
	.loc 1 710 9 is_stmt 1 view .LVU327
	.loc 1 711 11 view .LVU328
	.loc 1 711 17 is_stmt 0 view .LVU329
	movs	r2, #32
	orrs	r3, r2
.LVL118:
	.loc 1 715 9 is_stmt 1 view .LVU330
.L189:
	.loc 1 697 16 is_stmt 0 view .LVU331
	movs	r1, #16
.LVL119:
	.loc 1 697 16 view .LVU332
	b	.L133
.LVL120:
.L227:
	.loc 1 697 16 view .LVU333
.LBE91:
	.loc 1 642 12 is_stmt 1 view .LVU334
	.loc 1 642 15 is_stmt 0 view .LVU335
	cmp	r1, #42
	bne	.L111
.LBB92:
	.loc 1 643 9 is_stmt 1 view .LVU336
.LVL121:
	.loc 1 644 9 view .LVU337
	.loc 1 644 51 is_stmt 0 view .LVU338
	ldmia	r4!, {r2}
.LVL122:
	.loc 1 644 51 view .LVU339
	str	r2, [sp, #24]
	mvns	r2, r2
	ldr	r1, [sp, #24]
	asrs	r2, r2, #31
	ands	r1, r2
	.loc 1 645 15 view .LVU340
	ldr	r2, [sp, #40]
	.loc 1 644 51 view .LVU341
	str	r1, [sp, #24]
.LVL123:
	.loc 1 645 9 is_stmt 1 view .LVU342
	.loc 1 645 15 is_stmt 0 view .LVU343
	adds	r2, r2, #2
.LVL124:
	.loc 1 645 15 view .LVU344
	b	.L111
.LVL125:
.L117:
	.loc 1 645 15 view .LVU345
.LBE92:
	.loc 1 650 5 view .LVU346
	cmp	r0, #122
	bne	.L232
.LVL126:
.L121:
	.loc 1 678 7 is_stmt 1 view .LVU347
	.loc 1 678 13 is_stmt 0 view .LVU348
	movs	r2, #128
	lsls	r2, r2, #1
	b	.L230
.LVL127:
.L116:
	.loc 1 652 7 is_stmt 1 view .LVU349
	.loc 1 653 7 view .LVU350
	.loc 1 654 7 view .LVU351
	.loc 1 654 10 is_stmt 0 view .LVU352
	ldrb	r0, [r2, #1]
	cmp	r0, #108
	bne	.L121
	.loc 1 655 9 is_stmt 1 view .LVU353
	.loc 1 655 15 is_stmt 0 view .LVU354
	movs	r1, #192
	lsls	r1, r1, #2
.LVL128:
.L231:
	.loc 1 663 15 view .LVU355
	orrs	r3, r1
.LVL129:
	.loc 1 664 9 is_stmt 1 view .LVU356
	.loc 1 664 15 is_stmt 0 view .LVU357
	adds	r1, r2, #2
.LVL130:
	.loc 1 664 15 view .LVU358
	b	.L120
.LVL131:
.L118:
	.loc 1 660 7 is_stmt 1 view .LVU359
	.loc 1 661 7 view .LVU360
	.loc 1 662 7 view .LVU361
	.loc 1 662 10 is_stmt 0 view .LVU362
	ldrb	r0, [r2, #1]
	cmp	r0, #104
	beq	.L123
	.loc 1 660 13 view .LVU363
	movs	r2, #128
.LVL132:
.L230:
	.loc 1 678 13 view .LVU364
	orrs	r3, r2
.LVL133:
	.loc 1 679 7 is_stmt 1 view .LVU365
	.loc 1 680 7 view .LVU366
	b	.L120
.LVL134:
.L123:
	.loc 1 663 9 view .LVU367
	.loc 1 663 15 is_stmt 0 view .LVU368
	movs	r1, #192
	b	.L231
.LVL135:
.L119:
	.loc 1 674 7 is_stmt 1 view .LVU369
	.loc 1 674 13 is_stmt 0 view .LVU370
	movs	r2, #128
	lsls	r2, r2, #2
	b	.L230
.LVL136:
.L125:
	.loc 1 674 13 view .LVU371
	movs	r0, r5
	subs	r0, r0, #98
	cmp	r0, #22
	bls	.LCB1470
	b	.L124	@long jump
.LCB1470:
	bl	__gnu_thumb1_case_uhi
.L129:
	.2byte	(.L128-.L129)/2
	.2byte	(.L132-.L129)/2
	.2byte	(.L128-.L129)/2
	.2byte	(.L124-.L129)/2
	.2byte	(.L124-.L129)/2
	.2byte	(.L124-.L129)/2
	.2byte	(.L124-.L129)/2
	.2byte	(.L128-.L129)/2
	.2byte	(.L124-.L129)/2
	.2byte	(.L124-.L129)/2
	.2byte	(.L124-.L129)/2
	.2byte	(.L124-.L129)/2
	.2byte	(.L124-.L129)/2
	.2byte	(.L128-.L129)/2
	.2byte	(.L131-.L129)/2
	.2byte	(.L124-.L129)/2
	.2byte	(.L124-.L129)/2
	.2byte	(.L130-.L129)/2
	.2byte	(.L124-.L129)/2
	.2byte	(.L128-.L129)/2
	.2byte	(.L124-.L129)/2
	.2byte	(.L124-.L129)/2
	.2byte	(.L128-.L129)/2
	.p2align 1
.L128:
.LBB93:
	.loc 1 695 9 is_stmt 1 view .LVU372
	.loc 1 696 9 view .LVU373
	.loc 1 696 12 is_stmt 0 view .LVU374
	cmp	r5, #120
	beq	.L189
	.loc 1 699 14 is_stmt 1 view .LVU375
	.loc 1 699 17 is_stmt 0 view .LVU376
	cmp	r5, #111
	bne	.LCB1484
	b	.L190	@long jump
.LCB1484:
	.loc 1 702 14 is_stmt 1 view .LVU377
	.loc 1 702 17 is_stmt 0 view .LVU378
	cmp	r5, #98
	bne	.LCB1487
	b	.L191	@long jump
.LCB1487:
	.loc 1 706 11 is_stmt 1 view .LVU379
.LVL137:
	.loc 1 707 11 view .LVU380
	.loc 1 707 17 is_stmt 0 view .LVU381
	movs	r2, #16
	.loc 1 706 16 view .LVU382
	movs	r1, #10
.LVL138:
	.loc 1 707 17 view .LVU383
	bics	r3, r2
.LVL139:
	.loc 1 710 9 is_stmt 1 view .LVU384
	.loc 1 715 9 view .LVU385
	.loc 1 715 12 is_stmt 0 view .LVU386
	cmp	r5, #105
	beq	.L135
.LVL140:
	.loc 1 715 30 view .LVU387
	cmp	r5, #100
	beq	.L135
.L133:
	.loc 1 716 11 is_stmt 1 view .LVU388
	.loc 1 716 17 is_stmt 0 view .LVU389
	movs	r2, #12
	bics	r3, r2
.LVL141:
.L135:
	.loc 1 720 9 is_stmt 1 view .LVU390
	.loc 1 720 12 is_stmt 0 view .LVU391
	lsls	r2, r3, #21
	bpl	.L136
	.loc 1 721 11 is_stmt 1 view .LVU392
	.loc 1 721 17 is_stmt 0 view .LVU393
	movs	r2, #1
	bics	r3, r2
.LVL142:
.L136:
	.loc 1 725 9 is_stmt 1 view .LVU394
	.loc 1 744 21 is_stmt 0 view .LVU395
	movs	r2, #128
	lsls	r2, r2, #2
	ands	r2, r3
	.loc 1 725 12 view .LVU396
	cmp	r5, #105
	beq	.L137
	.loc 1 725 30 discriminator 1 view .LVU397
	cmp	r5, #100
	bne	.L138
.L137:
	.loc 1 727 11 is_stmt 1 view .LVU398
	.loc 1 727 14 is_stmt 0 view .LVU399
	cmp	r2, #0
	bne	.L179
	.loc 1 733 16 is_stmt 1 view .LVU400
	.loc 1 750 19 is_stmt 0 view .LVU401
	adds	r5, r4, #4
	.loc 1 733 19 view .LVU402
	lsls	r2, r3, #23
	bpl	.L140
.LBB85:
	.loc 1 734 13 is_stmt 1 view .LVU403
.LVL143:
	.loc 1 734 24 is_stmt 0 view .LVU404
	ldr	r2, [r4]
	.loc 1 735 13 is_stmt 1 view .LVU405
.LVL144:
.L142:
	.loc 1 735 13 is_stmt 0 view .LVU406
.LBE85:
.LBB86:
	.loc 1 739 13 is_stmt 1 discriminator 8 view .LVU407
	.loc 1 739 19 is_stmt 0 discriminator 8 view .LVU408
	str	r3, [sp, #20]
	ldr	r3, [sp, #24]
.LVL145:
	.loc 1 739 19 discriminator 8 view .LVU409
	str	r7, [sp, #16]
	str	r3, [sp, #12]
	lsrs	r3, r2, #31
	str	r3, [sp, #4]
	.loc 1 739 56 discriminator 8 view .LVU410
	asrs	r3, r2, #31
	adds	r2, r2, r3
.LVL146:
	.loc 1 739 19 discriminator 8 view .LVU411
	str	r1, [sp, #8]
	.loc 1 739 56 discriminator 8 view .LVU412
	eors	r2, r3
.LVL147:
.L234:
	.loc 1 739 56 discriminator 8 view .LVU413
.LBE86:
.LBB87:
	.loc 1 754 19 discriminator 8 view .LVU414
	str	r2, [sp]
	b	.L235
.LVL148:
.L140:
	.loc 1 754 19 discriminator 8 view .LVU415
.LBE87:
.LBB88:
	.loc 1 738 13 is_stmt 1 view .LVU416
	ldr	r2, [r4]
	.loc 1 738 76 is_stmt 0 view .LVU417
	lsls	r0, r3, #25
	bpl	.L141
.LVL149:
	.loc 1 738 76 view .LVU418
	uxtb	r2, r2
	b	.L142
.LVL150:
.L141:
	.loc 1 738 129 discriminator 2 view .LVU419
	lsls	r0, r3, #24
	bpl	.L142
.LVL151:
	.loc 1 738 129 view .LVU420
	sxth	r2, r2
	b	.L142
.LVL152:
.L138:
	.loc 1 738 129 view .LVU421
.LBE88:
	.loc 1 744 11 is_stmt 1 view .LVU422
	.loc 1 744 14 is_stmt 0 view .LVU423
	cmp	r2, #0
	bne	.L179
	.loc 1 749 16 is_stmt 1 view .LVU424
	.loc 1 750 19 is_stmt 0 view .LVU425
	adds	r5, r4, #4
	.loc 1 749 19 view .LVU426
	lsls	r0, r3, #23
	bpl	.L144
	.loc 1 750 13 is_stmt 1 view .LVU427
.LVL153:
	.loc 1 750 19 is_stmt 0 view .LVU428
	str	r3, [sp, #20]
	ldr	r3, [sp, #24]
.LVL154:
	.loc 1 750 19 view .LVU429
	str	r7, [sp, #16]
	str	r3, [sp, #12]
	str	r1, [sp, #8]
	str	r2, [sp, #4]
	ldr	r3, [r4]
	str	r3, [sp]
.LVL155:
.L235:
.LBB89:
	.loc 1 754 19 discriminator 8 view .LVU430
	movs	r2, r6
	ldr	r3, [sp, #28]
	ldr	r1, [sp, #36]
	ldr	r0, [sp, #32]
	bl	_ntoa_long
.LVL156:
	.loc 1 754 19 discriminator 8 view .LVU431
	movs	r4, r5
	movs	r6, r0
.LVL157:
	.loc 1 754 19 discriminator 8 view .LVU432
.LBE89:
	.loc 1 757 9 is_stmt 1 discriminator 8 view .LVU433
	.loc 1 758 9 discriminator 8 view .LVU434
.L179:
	.loc 1 758 9 is_stmt 0 discriminator 8 view .LVU435
.LBE93:
	.loc 1 590 9 is_stmt 1 view .LVU436
	.loc 1 590 10 is_stmt 0 view .LVU437
	ldr	r3, [sp, #40]
	ldrb	r0, [r3]
	.loc 1 590 9 view .LVU438
	cmp	r0, #0
	beq	.LCB1688
	b	.L180	@long jump
.LCB1688:
	.loc 1 856 3 is_stmt 1 view .LVU439
	ldr	r3, [sp, #28]
	movs	r2, r6
	cmp	r6, r3
	bcc	.L181
	.loc 1 856 3 is_stmt 0 discriminator 1 view .LVU440
	subs	r2, r3, #1
.L181:
	.loc 1 856 3 discriminator 4 view .LVU441
	movs	r0, #0
	ldr	r3, [sp, #28]
	ldr	r1, [sp, #36]
	ldr	r4, [sp, #32]
.LVL158:
	.loc 1 856 3 discriminator 4 view .LVU442
	blx	r4
.LVL159:
	.loc 1 859 3 is_stmt 1 discriminator 4 view .LVU443
	.loc 1 860 1 is_stmt 0 discriminator 4 view .LVU444
	movs	r0, r6
	add	sp, sp, #68
	@ sp needed
.LVL160:
	.loc 1 860 1 discriminator 4 view .LVU445
	pop	{r4, r5, r6, r7, pc}
.LVL161:
.L144:
.LBB94:
.LBB90:
	.loc 1 753 13 is_stmt 1 view .LVU446
	ldr	r2, [r4]
	.loc 1 753 103 is_stmt 0 view .LVU447
	lsls	r0, r3, #25
	bpl	.L145
.LVL162:
	.loc 1 753 103 view .LVU448
	uxtb	r2, r2
.LVL163:
.L146:
	.loc 1 754 13 is_stmt 1 discriminator 8 view .LVU449
	.loc 1 754 19 is_stmt 0 discriminator 8 view .LVU450
	str	r3, [sp, #20]
	ldr	r3, [sp, #24]
.LVL164:
	.loc 1 754 19 discriminator 8 view .LVU451
	str	r7, [sp, #16]
	str	r3, [sp, #12]
	movs	r3, #0
	str	r1, [sp, #8]
	str	r3, [sp, #4]
	b	.L234
.LVL165:
.L145:
	.loc 1 753 174 discriminator 2 view .LVU452
	lsls	r0, r3, #24
	bpl	.L146
.LVL166:
	.loc 1 753 174 discriminator 2 view .LVU453
	uxth	r2, r2
	b	.L146
.LVL167:
.L132:
	.loc 1 753 174 discriminator 2 view .LVU454
.LBE90:
.LBE94:
.LBB95:
	.loc 1 780 9 is_stmt 1 view .LVU455
	.loc 1 782 9 view .LVU456
	.loc 1 782 21 is_stmt 0 view .LVU457
	movs	r2, #2
	ands	r2, r3
	str	r2, [sp, #48]
	.loc 1 782 12 view .LVU458
	movs	r2, #2
	tst	r3, r2
	beq	.L193
	.loc 1 780 22 view .LVU459
	movs	r3, #1
.LVL168:
.L154:
	.loc 1 783 19 view .LVU460
	str	r3, [sp, #24]
.LVL169:
	.loc 1 788 9 is_stmt 1 view .LVU461
	.loc 1 788 9 is_stmt 0 view .LVU462
	movs	r3, r4
.LVL170:
	.loc 1 788 9 view .LVU463
	ldmia	r3!, {r0}
	movs	r2, r6
	str	r3, [sp, #44]
.LVL171:
	.loc 1 788 9 view .LVU464
	ldr	r1, [sp, #36]
	ldr	r3, [sp, #28]
	adds	r5, r6, #1
.LVL172:
	.loc 1 788 9 view .LVU465
	uxtb	r0, r0
	ldr	r6, [sp, #32]
	blx	r6
.LVL173:
	.loc 1 790 9 is_stmt 1 view .LVU466
	.loc 1 790 12 is_stmt 0 view .LVU467
	ldr	r3, [sp, #48]
	cmp	r3, #0
	beq	.L156
	.loc 1 788 9 view .LVU468
	movs	r2, r5
	ldr	r6, [sp, #24]
	b	.L155
.L237:
	.align	2
.L236:
	.word	_out_null
.LVL174:
.L150:
	.loc 1 784 13 is_stmt 1 view .LVU469
	.loc 1 784 13 is_stmt 0 view .LVU470
	movs	r0, #32
	ldr	r3, [sp, #28]
	ldr	r1, [sp, #36]
	ldr	r5, [sp, #32]
	blx	r5
.LVL175:
	.loc 1 784 13 view .LVU471
	ldr	r2, [sp, #24]
.LVL176:
.L148:
	.loc 1 783 17 is_stmt 1 view .LVU472
	.loc 1 784 13 is_stmt 0 view .LVU473
	adds	r3, r2, #1
	str	r3, [sp, #24]
	.loc 1 783 17 view .LVU474
	subs	r3, r3, r6
	cmp	r3, r7
	bcc	.L150
	movs	r3, #0
	cmp	r7, r3
	beq	.L152
	subs	r3, r7, #1
.L152:
	.loc 1 783 17 view .LVU475
	adds	r6, r6, r3
.LVL177:
	.loc 1 783 19 view .LVU476
	movs	r3, #2
	cmp	r7, #0
	beq	.L154
	adds	r3, r7, #1
	b	.L154
.LVL178:
.L193:
	.loc 1 783 19 view .LVU477
	movs	r2, r6
	b	.L148
.LVL179:
.L157:
	.loc 1 792 13 is_stmt 1 view .LVU478
	adds	r3, r2, #1
	str	r3, [sp, #48]
.LVL180:
	.loc 1 792 13 is_stmt 0 view .LVU479
	movs	r0, #32
	ldr	r3, [sp, #28]
.LVL181:
	.loc 1 792 13 view .LVU480
	ldr	r1, [sp, #36]
	ldr	r4, [sp, #32]
	blx	r4
.LVL182:
	ldr	r2, [sp, #48]
	adds	r6, r6, #1
.LVL183:
.L155:
	.loc 1 791 17 is_stmt 1 view .LVU481
	.loc 1 791 17 is_stmt 0 view .LVU482
	cmp	r6, r7
	bcc	.L157
	ldr	r2, [sp, #24]
.LVL184:
	.loc 1 791 17 view .LVU483
	movs	r3, #0
	cmp	r7, r2
	bcc	.L159
	subs	r3, r7, r2
.L159:
	.loc 1 791 17 view .LVU484
	adds	r5, r5, r3
.LVL185:
.L156:
	.loc 1 795 9 is_stmt 1 view .LVU485
	.loc 1 796 9 view .LVU486
	.loc 1 788 30 is_stmt 0 view .LVU487
	ldr	r4, [sp, #44]
	b	.L233
.LVL186:
.L130:
	.loc 1 788 30 view .LVU488
.LBE95:
.LBB96:
	.loc 1 800 9 is_stmt 1 view .LVU489
	.loc 1 800 21 is_stmt 0 view .LVU490
	movs	r2, r4
	ldmia	r2!, {r1}
.LVL187:
	.loc 1 800 21 view .LVU491
	str	r2, [sp, #48]
.LVL188:
	.loc 1 801 9 is_stmt 1 view .LVU492
	ldr	r2, [sp, #24]
	.loc 1 800 21 is_stmt 0 view .LVU493
	str	r1, [sp, #44]
	.loc 1 801 26 view .LVU494
	cmp	r2, #0
	bne	.L160
	movs	r2, #1
	rsbs	r2, r2, #0
.L160:
	.loc 1 801 26 view .LVU495
	ldr	r1, [sp, #44]
	movs	r4, r1
	adds	r2, r1, r2
.L161:
.LVL189:
.LBB97:
.LBB98:
	.loc 1 177 17 is_stmt 1 view .LVU496
	.loc 1 177 3 is_stmt 0 view .LVU497
	ldrb	r1, [r4]
	cmp	r1, #0
	beq	.L162
	.loc 1 177 20 view .LVU498
	cmp	r4, r2
	bne	.L163
.L162:
	.loc 1 178 3 is_stmt 1 view .LVU499
	.loc 1 178 27 is_stmt 0 view .LVU500
	ldr	r2, [sp, #44]
.LBE98:
.LBE97:
	.loc 1 803 19 view .LVU501
	movs	r1, r3
.LBB101:
.LBB99:
	.loc 1 178 27 view .LVU502
	subs	r4, r4, r2
.LVL190:
	.loc 1 178 27 view .LVU503
.LBE99:
.LBE101:
	.loc 1 803 9 is_stmt 1 view .LVU504
	.loc 1 803 19 is_stmt 0 view .LVU505
	movs	r2, #128
	lsls	r2, r2, #3
	ands	r1, r2
	str	r1, [sp, #52]
	.loc 1 803 12 view .LVU506
	tst	r3, r2
	beq	.L164
	.loc 1 804 11 is_stmt 1 view .LVU507
	.loc 1 804 13 is_stmt 0 view .LVU508
	ldr	r2, [sp, #24]
	cmp	r4, r2
	bls	.L164
	movs	r4, r2
.LVL191:
.L164:
	.loc 1 806 9 is_stmt 1 view .LVU509
	.loc 1 806 21 is_stmt 0 view .LVU510
	movs	r2, #2
	ands	r2, r3
	str	r2, [sp, #56]
	.loc 1 806 12 view .LVU511
	movs	r2, #2
	tst	r3, r2
	bne	.L167
	.loc 1 806 12 view .LVU512
	movs	r2, r6
	b	.L166
.LVL192:
.L163:
.LBB102:
.LBB100:
	.loc 1 177 38 is_stmt 1 view .LVU513
	.loc 1 177 34 view .LVU514
	adds	r4, r4, #1
.LVL193:
	.loc 1 177 34 is_stmt 0 view .LVU515
	b	.L161
.LVL194:
.L168:
	.loc 1 177 34 view .LVU516
.LBE100:
.LBE102:
	.loc 1 808 13 is_stmt 1 view .LVU517
	adds	r3, r2, #1
	str	r3, [sp, #60]
.LVL195:
	.loc 1 808 13 is_stmt 0 view .LVU518
	movs	r0, #32
	ldr	r3, [sp, #28]
.LVL196:
	.loc 1 808 13 view .LVU519
	ldr	r1, [sp, #36]
	ldr	r5, [sp, #32]
	blx	r5
.LVL197:
	.loc 1 808 13 view .LVU520
	ldr	r2, [sp, #60]
.LVL198:
.L166:
	.loc 1 807 17 is_stmt 1 view .LVU521
	.loc 1 807 17 is_stmt 0 view .LVU522
	subs	r3, r4, r6
	adds	r3, r3, r2
	cmp	r3, r7
	bcc	.L168
	movs	r3, #0
	cmp	r7, r4
	bcc	.L170
	subs	r3, r7, r4
.L170:
	.loc 1 807 17 view .LVU523
	adds	r4, r4, #1
.LVL199:
	.loc 1 807 17 view .LVU524
	adds	r6, r6, r3
.LVL200:
	.loc 1 807 19 view .LVU525
	adds	r4, r3, r4
.LVL201:
.L167:
	.loc 1 807 19 view .LVU526
	movs	r5, r6
	b	.L171
.LVL202:
.L197:
	.loc 1 807 19 view .LVU527
	str	r3, [sp, #24]
.LVL203:
.L173:
	.loc 1 813 11 is_stmt 1 view .LVU528
	.loc 1 813 11 is_stmt 0 view .LVU529
	adds	r3, r5, #1
	movs	r2, r5
	str	r3, [sp, #60]
.LVL204:
	.loc 1 813 11 view .LVU530
	ldr	r5, [sp, #32]
.LVL205:
	.loc 1 813 11 view .LVU531
	ldr	r3, [sp, #28]
.LVL206:
	.loc 1 813 11 view .LVU532
	ldr	r1, [sp, #36]
	blx	r5
.LVL207:
	.loc 1 813 11 view .LVU533
	ldr	r5, [sp, #60]
.LVL208:
.L171:
	.loc 1 812 15 is_stmt 1 view .LVU534
	.loc 1 812 17 is_stmt 0 view .LVU535
	ldr	r3, [sp, #44]
	subs	r3, r3, r6
	ldrb	r0, [r3, r5]
	.loc 1 812 15 view .LVU536
	cmp	r0, #0
	beq	.L172
	.loc 1 812 26 discriminator 1 view .LVU537
	ldr	r3, [sp, #52]
	cmp	r3, #0
	beq	.L173
	.loc 1 812 69 discriminator 2 view .LVU538
	ldr	r3, [sp, #24]
	.loc 1 812 57 discriminator 2 view .LVU539
	ldr	r2, [sp, #24]
	.loc 1 812 69 discriminator 2 view .LVU540
	subs	r3, r3, #1
.LVL209:
	.loc 1 812 57 discriminator 2 view .LVU541
	cmp	r2, #0
	bne	.L197
.LVL210:
.L172:
	.loc 1 816 9 is_stmt 1 view .LVU542
	.loc 1 816 12 is_stmt 0 view .LVU543
	ldr	r3, [sp, #56]
	cmp	r3, #0
	beq	.L175
	movs	r2, r5
	b	.L174
.LVL211:
.L176:
	.loc 1 818 13 is_stmt 1 view .LVU544
	adds	r3, r2, #1
	str	r3, [sp, #24]
.LVL212:
	.loc 1 818 13 is_stmt 0 view .LVU545
	movs	r0, #32
	ldr	r3, [sp, #28]
.LVL213:
	.loc 1 818 13 view .LVU546
	ldr	r1, [sp, #36]
	ldr	r6, [sp, #32]
	blx	r6
.LVL214:
	.loc 1 818 13 view .LVU547
	ldr	r2, [sp, #24]
.LVL215:
.L174:
	.loc 1 817 17 is_stmt 1 view .LVU548
	.loc 1 817 17 is_stmt 0 view .LVU549
	subs	r3, r4, r5
	adds	r3, r2, r3
	cmp	r7, r3
	bhi	.L176
	movs	r3, #0
	cmp	r7, r4
	bcc	.L178
	subs	r3, r7, r4
.L178:
	.loc 1 817 17 view .LVU550
	adds	r5, r5, r3
.LVL216:
.L175:
	.loc 1 821 9 is_stmt 1 view .LVU551
	.loc 1 822 9 view .LVU552
	.loc 1 800 21 is_stmt 0 view .LVU553
	ldr	r4, [sp, #48]
	b	.L233
.LVL217:
.L131:
	.loc 1 800 21 view .LVU554
.LBE96:
	.loc 1 826 9 is_stmt 1 view .LVU555
	.loc 1 827 9 view .LVU556
	.loc 1 835 11 view .LVU557
	.loc 1 827 15 is_stmt 0 view .LVU558
	movs	r2, #33
	orrs	r3, r2
.LVL218:
	.loc 1 835 17 view .LVU559
	str	r3, [sp, #20]
	movs	r3, #8
.LVL219:
	.loc 1 835 17 view .LVU560
	str	r3, [sp, #16]
	ldr	r3, [sp, #24]
	movs	r2, r6
	str	r3, [sp, #12]
	movs	r3, #16
	str	r3, [sp, #8]
	movs	r3, #0
	str	r3, [sp, #4]
	ldmia	r4!, {r3}
.LVL220:
	.loc 1 835 17 view .LVU561
	ldr	r1, [sp, #36]
.LVL221:
	.loc 1 835 17 view .LVU562
	str	r3, [sp]
	ldr	r0, [sp, #32]
	ldr	r3, [sp, #28]
	bl	_ntoa_long
.LVL222:
	.loc 1 835 17 view .LVU563
	movs	r6, r0
.LVL223:
	.loc 1 839 9 is_stmt 1 view .LVU564
	.loc 1 840 9 view .LVU565
	b	.L179
.LVL224:
.L124:
	.loc 1 849 7 view .LVU566
	movs	r2, r6
	movs	r0, r5
	ldr	r3, [sp, #28]
.LVL225:
	.loc 1 849 7 is_stmt 0 view .LVU567
	ldr	r1, [sp, #36]
.LVL226:
	.loc 1 849 7 view .LVU568
	ldr	r5, [sp, #32]
	adds	r7, r6, #1
.LVL227:
	.loc 1 849 7 view .LVU569
	blx	r5
.LVL228:
	.loc 1 850 7 is_stmt 1 view .LVU570
	.loc 1 851 7 view .LVU571
	.loc 1 849 7 is_stmt 0 view .LVU572
	movs	r6, r7
	.loc 1 851 7 view .LVU573
	b	.L179
.LVL229:
.L190:
.LBB103:
	.loc 1 700 16 view .LVU574
	movs	r1, #8
.LVL230:
	.loc 1 700 16 view .LVU575
	b	.L133
.LVL231:
.L191:
	.loc 1 703 16 view .LVU576
	movs	r1, #2
.LVL232:
	.loc 1 710 9 is_stmt 1 view .LVU577
	.loc 1 715 9 view .LVU578
	b	.L133
.LBE103:
.LFE10:
	.size	_vsnprintf, .-_vsnprintf
	.section	.text.printf_,"ax",%progbits
	.align	1
	.global	printf_
	.syntax unified
	.code	16
	.thumb_func
	.fpu softvfp
	.type	printf_, %function
printf_:
.LVL233:
.LFB11:
	.loc 1 866 1 view -0
	@ args = 4, pretend = 16, frame = 8
	@ frame_needed = 0, uses_anonymous_args = 1
	.loc 1 867 3 view .LVU580
	.loc 1 868 3 view .LVU581
	.loc 1 866 1 is_stmt 0 view .LVU582
	push	{r0, r1, r2, r3}
.LCFI6:
	push	{r0, r1, r2, r3, r4, lr}
.LCFI7:
	.loc 1 870 19 view .LVU583
	movs	r2, #1
	.loc 1 866 1 view .LVU584
	add	r1, sp, #24
	ldmia	r1!, {r3}
	.loc 1 870 19 view .LVU585
	rsbs	r2, r2, #0
	.loc 1 868 3 view .LVU586
	str	r1, [sp, #12]
	.loc 1 869 3 is_stmt 1 view .LVU587
	.loc 1 870 3 view .LVU588
	.loc 1 870 19 is_stmt 0 view .LVU589
	str	r1, [sp]
	ldr	r0, .L239
	add	r1, sp, #8
	bl	_vsnprintf
.LVL234:
	.loc 1 871 3 is_stmt 1 view .LVU590
	.loc 1 872 3 view .LVU591
	.loc 1 873 1 is_stmt 0 view .LVU592
	add	sp, sp, #20
	@ sp needed
	pop	{r3}
	add	sp, sp, #16
	bx	r3
.L240:
	.align	2
.L239:
	.word	_out_char
.LFE11:
	.size	printf_, .-printf_
	.section	.text.sprintf_,"ax",%progbits
	.align	1
	.global	sprintf_
	.syntax unified
	.code	16
	.thumb_func
	.fpu softvfp
	.type	sprintf_, %function
sprintf_:
.LVL235:
.LFB12:
	.loc 1 877 1 is_stmt 1 view -0
	@ args = 4, pretend = 12, frame = 8
	@ frame_needed = 0, uses_anonymous_args = 1
	.loc 1 878 3 view .LVU594
	.loc 1 879 3 view .LVU595
	.loc 1 877 1 is_stmt 0 view .LVU596
	push	{r1, r2, r3}
.LCFI8:
	.loc 1 880 19 view .LVU597
	movs	r2, #1
	.loc 1 877 1 view .LVU598
	push	{r4, lr}
.LCFI9:
	sub	sp, sp, #20
.LCFI10:
	.loc 1 877 1 view .LVU599
	add	r4, sp, #28
	ldmia	r4!, {r3}
	movs	r1, r0
	.loc 1 880 19 view .LVU600
	str	r4, [sp]
	rsbs	r2, r2, #0
	ldr	r0, .L242
.LVL236:
	.loc 1 879 3 view .LVU601
	str	r4, [sp, #12]
	.loc 1 880 3 is_stmt 1 view .LVU602
	.loc 1 880 19 is_stmt 0 view .LVU603
	bl	_vsnprintf
.LVL237:
	.loc 1 881 3 is_stmt 1 view .LVU604
	.loc 1 882 3 view .LVU605
	.loc 1 883 1 is_stmt 0 view .LVU606
	add	sp, sp, #20
	@ sp needed
	pop	{r4}
	pop	{r3}
	add	sp, sp, #12
	bx	r3
.L243:
	.align	2
.L242:
	.word	_out_buffer
.LFE12:
	.size	sprintf_, .-sprintf_
	.section	.text.snprintf_,"ax",%progbits
	.align	1
	.global	snprintf_
	.syntax unified
	.code	16
	.thumb_func
	.fpu softvfp
	.type	snprintf_, %function
snprintf_:
.LVL238:
.LFB13:
	.loc 1 887 1 is_stmt 1 view -0
	@ args = 4, pretend = 8, frame = 8
	@ frame_needed = 0, uses_anonymous_args = 1
	.loc 1 888 3 view .LVU608
	.loc 1 889 3 view .LVU609
	.loc 1 887 1 is_stmt 0 view .LVU610
	push	{r2, r3}
.LCFI11:
	push	{r0, r1, r2, r3, r4, lr}
.LCFI12:
	.loc 1 887 1 view .LVU611
	add	r4, sp, #24
	ldmia	r4!, {r3}
	movs	r2, r1
	.loc 1 890 19 view .LVU612
	str	r4, [sp]
	movs	r1, r0
.LVL239:
	.loc 1 890 19 view .LVU613
	ldr	r0, .L245
.LVL240:
	.loc 1 889 3 view .LVU614
	str	r4, [sp, #12]
	.loc 1 890 3 is_stmt 1 view .LVU615
	.loc 1 890 19 is_stmt 0 view .LVU616
	bl	_vsnprintf
.LVL241:
	.loc 1 891 3 is_stmt 1 view .LVU617
	.loc 1 892 3 view .LVU618
	.loc 1 893 1 is_stmt 0 view .LVU619
	add	sp, sp, #16
	@ sp needed
	pop	{r4}
	pop	{r3}
	add	sp, sp, #8
	bx	r3
.L246:
	.align	2
.L245:
	.word	_out_buffer
.LFE13:
	.size	snprintf_, .-snprintf_
	.section	.text.vprintf_,"ax",%progbits
	.align	1
	.global	vprintf_
	.syntax unified
	.code	16
	.thumb_func
	.fpu softvfp
	.type	vprintf_, %function
vprintf_:
.LVL242:
.LFB14:
	.loc 1 897 1 is_stmt 1 view -0
	@ args = 0, pretend = 0, frame = 8
	@ frame_needed = 0, uses_anonymous_args = 0
	.loc 1 898 3 view .LVU621
	.loc 1 899 3 view .LVU622
	.loc 1 897 1 is_stmt 0 view .LVU623
	push	{r0, r1, r2, r3, r4, lr}
.LCFI13:
.LVL243:
	.loc 1 899 10 view .LVU624
	movs	r2, #1
	.loc 1 897 1 view .LVU625
	movs	r3, r0
	.loc 1 899 10 view .LVU626
	str	r1, [sp]
	rsbs	r2, r2, #0
	add	r1, sp, #12
	ldr	r0, .L248
.LVL244:
	.loc 1 899 10 view .LVU627
	bl	_vsnprintf
.LVL245:
	.loc 1 900 1 view .LVU628
	add	sp, sp, #20
	@ sp needed
	pop	{pc}
.L249:
	.align	2
.L248:
	.word	_out_char
.LFE14:
	.size	vprintf_, .-vprintf_
	.section	.text.vsnprintf_,"ax",%progbits
	.align	1
	.global	vsnprintf_
	.syntax unified
	.code	16
	.thumb_func
	.fpu softvfp
	.type	vsnprintf_, %function
vsnprintf_:
.LVL246:
.LFB15:
	.loc 1 904 1 is_stmt 1 view -0
	@ args = 0, pretend = 0, frame = 0
	@ frame_needed = 0, uses_anonymous_args = 0
	.loc 1 905 3 view .LVU630
	.loc 1 904 1 is_stmt 0 view .LVU631
	push	{r0, r1, r2, lr}
.LCFI14:
	.loc 1 905 10 view .LVU632
	str	r3, [sp]
	movs	r3, r2
.LVL247:
	.loc 1 906 1 view .LVU633
	@ sp needed
	.loc 1 905 10 view .LVU634
	movs	r2, r1
.LVL248:
	.loc 1 905 10 view .LVU635
	movs	r1, r0
.LVL249:
	.loc 1 905 10 view .LVU636
	ldr	r0, .L251
.LVL250:
	.loc 1 905 10 view .LVU637
	bl	_vsnprintf
.LVL251:
	.loc 1 906 1 view .LVU638
	pop	{r1, r2, r3, pc}
.L252:
	.align	2
.L251:
	.word	_out_buffer
.LFE15:
	.size	vsnprintf_, .-vsnprintf_
	.section	.text.fctprintf,"ax",%progbits
	.align	1
	.global	fctprintf
	.syntax unified
	.code	16
	.thumb_func
	.fpu softvfp
	.type	fctprintf, %function
fctprintf:
.LVL252:
.LFB16:
	.loc 1 910 1 is_stmt 1 view -0
	@ args = 4, pretend = 8, frame = 16
	@ frame_needed = 0, uses_anonymous_args = 1
	.loc 1 911 3 view .LVU640
	.loc 1 912 3 view .LVU641
	.loc 1 910 1 is_stmt 0 view .LVU642
	push	{r2, r3}
.LCFI15:
	.loc 1 914 19 view .LVU643
	movs	r2, #1
	.loc 1 910 1 view .LVU644
	push	{r4, lr}
.LCFI16:
	sub	sp, sp, #24
.LCFI17:
	.loc 1 910 1 view .LVU645
	add	r4, sp, #32
	ldmia	r4!, {r3}
	.loc 1 913 27 view .LVU646
	str	r0, [sp, #16]
	str	r1, [sp, #20]
	.loc 1 914 19 view .LVU647
	str	r4, [sp]
	rsbs	r2, r2, #0
	add	r1, sp, #16
	ldr	r0, .L254
.LVL253:
	.loc 1 912 3 view .LVU648
	str	r4, [sp, #12]
	.loc 1 913 3 is_stmt 1 view .LVU649
	.loc 1 914 3 view .LVU650
	.loc 1 914 19 is_stmt 0 view .LVU651
	bl	_vsnprintf
.LVL254:
	.loc 1 915 3 is_stmt 1 view .LVU652
	.loc 1 916 3 view .LVU653
	.loc 1 917 1 is_stmt 0 view .LVU654
	add	sp, sp, #24
	@ sp needed
	pop	{r4}
	pop	{r3}
	add	sp, sp, #8
	bx	r3
.L255:
	.align	2
.L254:
	.word	_out_fct
.LFE16:
	.size	fctprintf, .-fctprintf
	.section	.debug_frame,"",%progbits
.Lframe0:
	.4byte	.LECIE0-.LSCIE0
.LSCIE0:
	.4byte	0xffffffff
	.byte	0x3
	.ascii	"\000"
	.uleb128 0x1
	.sleb128 -4
	.uleb128 0xe
	.byte	0xc
	.uleb128 0xd
	.uleb128 0
	.align	2
.LECIE0:
.LSFDE0:
	.4byte	.LEFDE0-.LASFDE0
.LASFDE0:
	.4byte	.Lframe0
	.4byte	.LFB0
	.4byte	.LFE0-.LFB0
	.align	2
.LEFDE0:
.LSFDE2:
	.4byte	.LEFDE2-.LASFDE2
.LASFDE2:
	.4byte	.Lframe0
	.4byte	.LFB1
	.4byte	.LFE1-.LFB1
	.align	2
.LEFDE2:
.LSFDE4:
	.4byte	.LEFDE4-.LASFDE4
.LASFDE4:
	.4byte	.Lframe0
	.4byte	.LFB9
	.4byte	.LFE9-.LFB9
	.byte	0x4
	.4byte	.LCFI0-.LFB9
	.byte	0xe
	.uleb128 0x14
	.byte	0x84
	.uleb128 0x5
	.byte	0x85
	.uleb128 0x4
	.byte	0x86
	.uleb128 0x3
	.byte	0x87
	.uleb128 0x2
	.byte	0x8e
	.uleb128 0x1
	.byte	0x4
	.4byte	.LCFI1-.LCFI0
	.byte	0xe
	.uleb128 0x48
	.align	2
.LEFDE4:
.LSFDE6:
	.4byte	.LEFDE6-.LASFDE6
.LASFDE6:
	.4byte	.Lframe0
	.4byte	.LFB2
	.4byte	.LFE2-.LFB2
	.byte	0x4
	.4byte	.LCFI2-.LFB2
	.byte	0xe
	.uleb128 0x8
	.byte	0x84
	.uleb128 0x2
	.byte	0x8e
	.uleb128 0x1
	.align	2
.LEFDE6:
.LSFDE8:
	.4byte	.LEFDE8-.LASFDE8
.LASFDE8:
	.4byte	.Lframe0
	.4byte	.LFB3
	.4byte	.LFE3-.LFB3
	.byte	0x4
	.4byte	.LCFI3-.LFB3
	.byte	0xe
	.uleb128 0x8
	.byte	0x84
	.uleb128 0x2
	.byte	0x8e
	.uleb128 0x1
	.align	2
.LEFDE8:
.LSFDE10:
	.4byte	.LEFDE10-.LASFDE10
.LASFDE10:
	.4byte	.Lframe0
	.4byte	.LFB10
	.4byte	.LFE10-.LFB10
	.byte	0x4
	.4byte	.LCFI4-.LFB10
	.byte	0xe
	.uleb128 0x14
	.byte	0x84
	.uleb128 0x5
	.byte	0x85
	.uleb128 0x4
	.byte	0x86
	.uleb128 0x3
	.byte	0x87
	.uleb128 0x2
	.byte	0x8e
	.uleb128 0x1
	.byte	0x4
	.4byte	.LCFI5-.LCFI4
	.byte	0xe
	.uleb128 0x58
	.align	2
.LEFDE10:
.LSFDE12:
	.4byte	.LEFDE12-.LASFDE12
.LASFDE12:
	.4byte	.Lframe0
	.4byte	.LFB11
	.4byte	.LFE11-.LFB11
	.byte	0x4
	.4byte	.LCFI6-.LFB11
	.byte	0xe
	.uleb128 0x10
	.byte	0x4
	.4byte	.LCFI7-.LCFI6
	.byte	0xe
	.uleb128 0x28
	.byte	0x80
	.uleb128 0xa
	.byte	0x81
	.uleb128 0x9
	.byte	0x82
	.uleb128 0x8
	.byte	0x83
	.uleb128 0x7
	.byte	0x84
	.uleb128 0x6
	.byte	0x8e
	.uleb128 0x5
	.align	2
.LEFDE12:
.LSFDE14:
	.4byte	.LEFDE14-.LASFDE14
.LASFDE14:
	.4byte	.Lframe0
	.4byte	.LFB12
	.4byte	.LFE12-.LFB12
	.byte	0x4
	.4byte	.LCFI8-.LFB12
	.byte	0xe
	.uleb128 0xc
	.byte	0x4
	.4byte	.LCFI9-.LCFI8
	.byte	0xe
	.uleb128 0x14
	.byte	0x84
	.uleb128 0x5
	.byte	0x8e
	.uleb128 0x4
	.byte	0x4
	.4byte	.LCFI10-.LCFI9
	.byte	0xe
	.uleb128 0x28
	.align	2
.LEFDE14:
.LSFDE16:
	.4byte	.LEFDE16-.LASFDE16
.LASFDE16:
	.4byte	.Lframe0
	.4byte	.LFB13
	.4byte	.LFE13-.LFB13
	.byte	0x4
	.4byte	.LCFI11-.LFB13
	.byte	0xe
	.uleb128 0x8
	.byte	0x4
	.4byte	.LCFI12-.LCFI11
	.byte	0xe
	.uleb128 0x20
	.byte	0x80
	.uleb128 0x8
	.byte	0x81
	.uleb128 0x7
	.byte	0x82
	.uleb128 0x6
	.byte	0x83
	.uleb128 0x5
	.byte	0x84
	.uleb128 0x4
	.byte	0x8e
	.uleb128 0x3
	.align	2
.LEFDE16:
.LSFDE18:
	.4byte	.LEFDE18-.LASFDE18
.LASFDE18:
	.4byte	.Lframe0
	.4byte	.LFB14
	.4byte	.LFE14-.LFB14
	.byte	0x4
	.4byte	.LCFI13-.LFB14
	.byte	0xe
	.uleb128 0x18
	.byte	0x80
	.uleb128 0x6
	.byte	0x81
	.uleb128 0x5
	.byte	0x82
	.uleb128 0x4
	.byte	0x83
	.uleb128 0x3
	.byte	0x84
	.uleb128 0x2
	.byte	0x8e
	.uleb128 0x1
	.align	2
.LEFDE18:
.LSFDE20:
	.4byte	.LEFDE20-.LASFDE20
.LASFDE20:
	.4byte	.Lframe0
	.4byte	.LFB15
	.4byte	.LFE15-.LFB15
	.byte	0x4
	.4byte	.LCFI14-.LFB15
	.byte	0xe
	.uleb128 0x10
	.byte	0x80
	.uleb128 0x4
	.byte	0x81
	.uleb128 0x3
	.byte	0x82
	.uleb128 0x2
	.byte	0x8e
	.uleb128 0x1
	.align	2
.LEFDE20:
.LSFDE22:
	.4byte	.LEFDE22-.LASFDE22
.LASFDE22:
	.4byte	.Lframe0
	.4byte	.LFB16
	.4byte	.LFE16-.LFB16
	.byte	0x4
	.4byte	.LCFI15-.LFB16
	.byte	0xe
	.uleb128 0x8
	.byte	0x4
	.4byte	.LCFI16-.LCFI15
	.byte	0xe
	.uleb128 0x10
	.byte	0x84
	.uleb128 0x4
	.byte	0x8e
	.uleb128 0x3
	.byte	0x4
	.4byte	.LCFI17-.LCFI16
	.byte	0xe
	.uleb128 0x28
	.align	2
.LEFDE22:
	.text
.Letext0:
	.file 2 "C:/Program Files/SEGGER/SEGGER Embedded Studio for ARM 5.50d/include/stdint.h"
	.file 3 "C:/Program Files/SEGGER/SEGGER Embedded Studio for ARM 5.50d/include/__crossworks.h"
	.file 4 "C:/Program Files/SEGGER/SEGGER Embedded Studio for ARM 5.50d/include/stdarg.h"
	.file 5 "C:/Program Files/SEGGER/SEGGER Embedded Studio for ARM 5.50d/include/stddef.h"
	.file 6 "<built-in>"
	.file 7 "C:\\Users\\PETN\\Google Drive\\NRF52840DoomKeyboardOnNRF51822\\src\\printf.h"